(dp1
S'failed'
p2
(lp3
sS'source_names'
p4
(lp5
S'.'
asS'ids'
p6
(dp7
I1
(S'/home/jhemmi/Documents/GIS/SCRIPT/QGIS/PhysiocapAnalyseur/test/test_Physiocap_dialog.py'
S'PhysiocapAnalyseur.test.test_Physiocap_dialog'
p8
S'PhysiocapAnalyseurDialogTest.test_dialog_cancel'
tp9
sI2
(S'/home/jhemmi/Documents/GIS/SCRIPT/QGIS/PhysiocapAnalyseur/test/test_Physiocap_dialog.py'
g8
S'PhysiocapAnalyseurDialogTest.test_dialog_ok'
tp10
sI3
(S'/home/jhemmi/Documents/GIS/SCRIPT/QGIS/PhysiocapAnalyseur/test/test_init.py'
S'PhysiocapAnalyseur.test.test_init'
S'TestInit.test_read_init'
tp11
sI4
(S'/home/jhemmi/Documents/GIS/SCRIPT/QGIS/PhysiocapAnalyseur/test/test_qgis_environment.py'
S'PhysiocapAnalyseur.test.test_qgis_environment'
p12
S'QGISTest.test_projection'
tp13
sI5
(S'/home/jhemmi/Documents/GIS/SCRIPT/QGIS/PhysiocapAnalyseur/test/test_qgis_environment.py'
g12
S'QGISTest.test_qgis_environment'
tp14
sI6
(S'/home/jhemmi/Documents/GIS/SCRIPT/QGIS/PhysiocapAnalyseur/test/test_resources.py'
S'PhysiocapAnalyseur.test.test_resources'
S'PhysiocapAnalyseurDialogTest.test_icon_png'
tp15
sI7
(S'/home/jhemmi/Documents/GIS/SCRIPT/QGIS/PhysiocapAnalyseur/test/test_translations.py'
S'PhysiocapAnalyseur.test.test_translations'
S'SafeTranslationsTest.test_qgis_translations'
tp16
sI8
(S'/home/jhemmi/Documents/GIS/SCRIPT/QGIS/PhysiocapAnalyseur/test/test_Physiocap_dialog.py'
S'PhysiocapAnalyseur.test.test_Physiocap_dialog'
Ntp17
sI9
(S'/home/jhemmi/Documents/GIS/SCRIPT/QGIS/PhysiocapAnalyseur/test/test_Physiocap_dialog.py'
S'PhysiocapAnalyseur.test.test_Physiocap_dialog'
S'PhysiocapAnalyseurDialogTest.test_dialog_save'
tp18
sI10
(S'/home/jhemmi/Documents/GIS/SCRIPT/QGIS/PhysiocapAnalyseur/test/test_Physiocap_dialog.py'
S'PhysiocapAnalyseur.test.test_Physiocap_dialog'
S'PhysiocapAnalyseurDialogTest.test_dialog_close'
tp19
ss.